; Function Attrs: mustprogress uwtable
define void @_ZN6icu_757UVector19sortWithUComparatorEPFiPKvS2_S2_ES2_R10UErrorCode(ptr nocapture noundef nonnull readonly align 8 dereferenceable(40) %this, ptr noundef %compare, ptr noundef %context, ptr noundef nonnull align 4 dereferenceable(4) %ec) local_unnamed_addr #1 align 2 {
entry:
  %0 = load i32, ptr %ec, align 4
  %cmp.i = icmp sgt i32 %0, 0
  br i1 %cmp.i, label %if.end, label %if.then

if.then:                                          ; preds = %entry
  %elements = getelementptr inbounds i8, ptr %this, i64 16
  %1 = load ptr, ptr %elements, align 8
  %count = getelementptr inbounds i8, ptr %this, i64 8
  %2 = load i32, ptr %count, align 8
  tail call void @uprv_sortArray_75(ptr noundef %1, i32 noundef %2, i32 noundef 8, ptr noundef %compare, ptr noundef %context, i8 noundef signext 1, ptr noundef nonnull %ec)
  br label %if.end

if.end:                                           ; preds = %if.then, %entry
  ret void
}